; Function Attrs: mustprogress uwtable
define dso_local void @_ZN25cmCLocaleEnvironmentScope6GetEnvERKNSt7__cxx1112basic_stringIcSt11char_traitsIcESaIcEEE(ptr dead_on_unwind noalias nonnull writable sret(%"class.std::__cxx11::basic_string") align 8 %0, ptr noundef nonnull readnone align 8 captures(none) dereferenceable(48) %1, ptr noundef nonnull align 8 dereferenceable(32) %2) local_unnamed_addr #3 align 2 personality ptr @__gxx_personality_v0 {
  tail call void @_ZNSt7__cxx1112basic_stringIcSt11char_traitsIcESaIcEEC1Ev(ptr noundef nonnull align 8 dereferenceable(32) %0) #11
  %4 = invoke noundef zeroext i1 @_ZN5cmsys11SystemTools6GetEnvERKNSt7__cxx1112basic_stringIcSt11char_traitsIcESaIcEEERS6_(ptr noundef nonnull align 8 dereferenceable(32) %2, ptr noundef nonnull align 8 dereferenceable(32) %0)
          to label %7 unwind label %5

5:                                                ; preds = %3
  %6 = landingpad { ptr, i32 }
          cleanup
  tail call void @_ZNSt7__cxx1112basic_stringIcSt11char_traitsIcESaIcEED1Ev(ptr noundef nonnull align 8 dereferenceable(32) %0) #11
  resume { ptr, i32 } %6

7:                                                ; preds = %3
  ret void
}